target datalayout = "e-m:e-p270:32:32-p271:32:32-p272:64:64-i64:64-i128:128-f80:128-n8:16:32:64-S128"
target triple = "x86_64-pc-linux-gnu"

@stdout = external global ptr, align 8
@.str.303 = private unnamed_addr constant [2 x i8] c"r\00", align 1
@.str.374 = private unnamed_addr constant [3 x i8] c"%s\00", align 1
@.str.448 = private unnamed_addr constant [3 x i8] c"\0A\0A\00", align 1

; Function Attrs: mustprogress uwtable
define internal void @_ZL8finalizePKc(ptr noundef %0) #0 {
  %2 = alloca ptr, align 8
  %3 = alloca [4096 x i8], align 16
  %4 = alloca ptr, align 8
  store ptr %0, ptr %2, align 8
  %5 = load ptr, ptr %2, align 8
  %6 = call noalias ptr @fopen(ptr noundef %5, ptr noundef @.str.303)
  store ptr %6, ptr %4, align 8
  %7 = load ptr, ptr @stdout, align 8
  %8 = call i32 (ptr, ptr, ...) @fprintf(ptr noundef %7, ptr noundef @.str.448) #2
  br label %9

9:                                                ; preds = %14, %1
  %10 = getelementptr inbounds [4096 x i8], ptr %3, i64 0, i64 0
  %11 = load ptr, ptr %4, align 8
  %12 = call ptr @fgets(ptr noundef %10, i32 noundef 4095, ptr noundef %11)
  %13 = icmp ne ptr %12, null
  br i1 %13, label %14, label %18

14:                                               ; preds = %9
  %15 = load ptr, ptr @stdout, align 8
  %16 = getelementptr inbounds [4096 x i8], ptr %3, i64 0, i64 0
  %17 = call i32 (ptr, ptr, ...) @fprintf(ptr noundef %15, ptr noundef @.str.374, ptr noundef %16) #2
  br label %9, !llvm.loop !25

18:                                               ; preds = %9
  %19 = load ptr, ptr %4, align 8
  %20 = call i32 @fclose(ptr noundef %19)
  %21 = load ptr, ptr @stdout, align 8
  %22 = call i32 (ptr, ptr, ...) @fprintf(ptr noundef %21, ptr noundef @.str.448) #2
  ret void
}