; Function Attrs: mustprogress nofree nounwind uwtable
define internal fastcc void @_ZL8finalizePKc(ptr nocapture noundef readonly %0) unnamed_addr #11 {
  %2 = alloca [4096 x i8], align 16
  %3 = tail call noalias ptr @fopen(ptr noundef %0, ptr noundef nonnull @.str.303)
  %4 = load ptr, ptr @stdout, align 8
  %5 = tail call i64 @fwrite(ptr nonnull @.str.448, i64 2, i64 1, ptr %4)
  %6 = call ptr @fgets(ptr noundef nonnull %2, i32 noundef 4095, ptr noundef %3)
  %.not3 = icmp eq ptr %6, null
  br i1 %.not3, label %._crit_edge, label %.lr.ph

.lr.ph:                                           ; preds = %1, %.lr.ph
  %7 = load ptr, ptr @stdout, align 8
  %fputs = call i32 @fputs(ptr nonnull %2, ptr %7)
  %8 = call ptr @fgets(ptr noundef nonnull %2, i32 noundef 4095, ptr noundef %3)
  %.not = icmp eq ptr %8, null
  br i1 %.not, label %._crit_edge, label %.lr.ph, !llvm.loop !43

._crit_edge:                                      ; preds = %.lr.ph, %1
  %9 = call i32 @fclose(ptr noundef %3)
  %10 = load ptr, ptr @stdout, align 8
  %11 = call i64 @fwrite(ptr nonnull @.str.448, i64 2, i64 1, ptr %10)
  ret void
}